target datalayout = "e-m:e-p270:32:32-p271:32:32-p272:64:64-i64:64-i128:128-f80:128-n8:16:32:64-S128"
target triple = "x86_64-pc-linux-gnu"

%struct.slurm_step_id_msg = type { i64, i32, i32, i32 }
%struct.srun_job = type { %struct.slurm_step_id_msg, i32, i32, ptr, i32, i32, i32, i32, ptr, ptr, ptr, ptr, i32, i32, i32, i16, i16, i16, i16, i32, %union.pthread_mutex_t, %union.pthread_cond_t, i32, ptr, ptr, ptr, ptr, ptr, ptr, i32, i16, i16, i16, ptr, ptr, ptr, ptr, i32, ptr, i32, ptr }
%union.pthread_mutex_t = type { %struct.__pthread_mutex_s }
%struct.__pthread_mutex_s = type { i32, i32, i32, i32, i32, i16, i16, %struct.__pthread_internal_list }
%struct.__pthread_internal_list = type { ptr, ptr }
%union.pthread_cond_t = type { %struct.__pthread_cond_s }
%struct.__pthread_cond_s = type { %union.__atomic_wide_counter, %union.__atomic_wide_counter, [2 x i32], [2 x i32], i32, i32, [2 x i32] }
%union.__atomic_wide_counter = type { i64 }

@job_force_termination.kill_sent = internal global i32 0, align 4
@job_force_termination.last_msg = internal global i64 0, align 8
@.str.43 = private unnamed_addr constant [24 x i8] c"forcing job termination\00", align 1
@.str.44 = private unnamed_addr constant [22 x i8] c"job abort in progress\00", align 1

; Function Attrs: nounwind uwtable
define dso_local void @job_force_termination(ptr noundef %0) #0 {
  %2 = alloca ptr, align 8
  %3 = alloca i64, align 8
  store ptr %0, ptr %2, align 8
  %4 = load i32, ptr @job_force_termination.kill_sent, align 4
  %5 = icmp eq i32 %4, 0
  br i1 %5, label %6, label %16

6:                                                ; preds = %1
  br label %7

7:                                                ; preds = %6
  br label %8

8:                                                ; preds = %7
  %9 = call i32 @get_log_level()
  %10 = icmp sge i32 %9, 3
  br i1 %10, label %11, label %12

11:                                               ; preds = %8
  call void (i32, ptr, ...) @log_var(i32 noundef 3, ptr noundef @.str.43)
  br label %12

12:                                               ; preds = %11, %8
  br label %13

13:                                               ; preds = %12
  br label %14

14:                                               ; preds = %13
  %15 = load ptr, ptr %2, align 8
  call void @update_job_state(ptr noundef %15, i32 noundef 4)
  call void @launch_g_fwd_signal(i32 noundef 9)
  br label %47

16:                                               ; preds = %1
  call void @llvm.lifetime.start.p0(i64 8, ptr %3) #10
  %17 = call i64 @time(ptr noundef null) #10
  store i64 %17, ptr %3, align 8
  %18 = load i64, ptr @job_force_termination.last_msg, align 8
  %19 = load i64, ptr %3, align 8
  %20 = icmp ne i64 %18, %19
  br i1 %20, label %21, label %33

21:                                               ; preds = %16
  br label %22

22:                                               ; preds = %21
  br label %23

23:                                               ; preds = %22
  %24 = call i32 @get_log_level()
  %25 = icmp sge i32 %24, 3
  br i1 %25, label %26, label %27

26:                                               ; preds = %23
  call void (i32, ptr, ...) @log_var(i32 noundef 3, ptr noundef @.str.44)
  br label %27

27:                                               ; preds = %26, %23
  br label %28

28:                                               ; preds = %27
  br label %29

29:                                               ; preds = %28
  br label %30

30:                                               ; preds = %29
  br label %31

31:                                               ; preds = %30
  %32 = load i64, ptr %3, align 8
  store i64 %32, ptr @job_force_termination.last_msg, align 8
  br label %33

33:                                               ; preds = %31, %16
  %34 = load i32, ptr @job_force_termination.kill_sent, align 4
  %35 = icmp eq i32 %34, 1
  br i1 %35, label %36, label %46

36:                                               ; preds = %33
  %37 = load ptr, ptr %2, align 8
  %38 = getelementptr inbounds nuw %struct.srun_job, ptr %37, i32 0, i32 0
  %39 = getelementptr inbounds nuw %struct.slurm_step_id_msg, ptr %38, i32 0, i32 1
  %40 = load i32, ptr %39, align 8
  %41 = load ptr, ptr %2, align 8
  %42 = getelementptr inbounds nuw %struct.srun_job, ptr %41, i32 0, i32 0
  %43 = getelementptr inbounds nuw %struct.slurm_step_id_msg, ptr %42, i32 0, i32 3
  %44 = load i32, ptr %43, align 8
  %45 = call i32 @slurm_kill_job_step(i32 noundef %40, i32 noundef %44, i16 noundef zeroext 9, i16 noundef zeroext 0)
  br label %46

46:                                               ; preds = %36, %33
  call void @llvm.lifetime.end.p0(i64 8, ptr %3) #10
  br label %47

47:                                               ; preds = %46, %14
  %48 = load i32, ptr @job_force_termination.kill_sent, align 4
  %49 = add nsw i32 %48, 1
  store i32 %49, ptr @job_force_termination.kill_sent, align 4
  ret void
}