; Function Attrs: nounwind uwtable
define dso_local void @job_force_termination(ptr noundef %0) local_unnamed_addr #0 {
  %2 = load i32, ptr @job_force_termination.kill_sent, align 4
  %3 = icmp eq i32 %2, 0
  br i1 %3, label %4, label %9

4:                                                ; preds = %1
  %5 = tail call i32 @get_log_level() #15
  %6 = icmp sgt i32 %5, 2
  br i1 %6, label %7, label %8

7:                                                ; preds = %4
  tail call void (i32, ptr, ...) @log_var(i32 noundef 3, ptr noundef nonnull @.str.43) #15
  br label %8

8:                                                ; preds = %7, %4
  tail call void @update_job_state(ptr noundef %0, i32 noundef 4)
  tail call void @launch_g_fwd_signal(i32 noundef 9) #15
  br label %26

9:                                                ; preds = %1
  %10 = tail call i64 @time(ptr noundef null) #15
  %11 = load i64, ptr @job_force_termination.last_msg, align 8
  %.not = icmp eq i64 %11, %10
  br i1 %.not, label %17, label %12

12:                                               ; preds = %9
  %13 = tail call i32 @get_log_level() #15
  %14 = icmp sgt i32 %13, 2
  br i1 %14, label %15, label %16

15:                                               ; preds = %12
  tail call void (i32, ptr, ...) @log_var(i32 noundef 3, ptr noundef nonnull @.str.44) #15
  br label %16

16:                                               ; preds = %15, %12
  store i64 %10, ptr @job_force_termination.last_msg, align 8
  br label %17

17:                                               ; preds = %16, %9
  %18 = load i32, ptr @job_force_termination.kill_sent, align 4
  %19 = icmp eq i32 %18, 1
  br i1 %19, label %20, label %26

20:                                               ; preds = %17
  %21 = getelementptr inbounds nuw i8, ptr %0, i64 8
  %22 = load i32, ptr %21, align 8
  %23 = getelementptr inbounds nuw i8, ptr %0, i64 16
  %24 = load i32, ptr %23, align 8
  %25 = tail call i32 @slurm_kill_job_step(i32 noundef %22, i32 noundef %24, i16 noundef zeroext 9, i16 noundef zeroext 0) #15
  br label %26

26:                                               ; preds = %17, %20, %8
  %27 = load i32, ptr @job_force_termination.kill_sent, align 4
  %28 = add nsw i32 %27, 1
  store i32 %28, ptr @job_force_termination.kill_sent, align 4
  ret void
}